target datalayout = "e-m:e-p270:32:32-p271:32:32-p272:64:64-i64:64-i128:128-f80:128-n8:16:32:64-S128"
target triple = "x86_64-pc-linux-gnu"

; Function Attrs: nounwind uwtable
define internal ptr @stbi__resample_row_h_2(ptr noundef %0, ptr noundef %1, ptr noundef %2, i32 noundef %3, i32 noundef %4) #0 {
  %6 = alloca ptr, align 8
  %7 = alloca ptr, align 8
  %8 = alloca ptr, align 8
  %9 = alloca ptr, align 8
  %10 = alloca i32, align 4
  %11 = alloca i32, align 4
  %12 = alloca i32, align 4
  %13 = alloca ptr, align 8
  %14 = alloca i32, align 4
  %15 = alloca i32, align 4
  store ptr %0, ptr %7, align 8
  store ptr %1, ptr %8, align 8
  store ptr %2, ptr %9, align 8
  store i32 %3, ptr %10, align 4
  store i32 %4, ptr %11, align 4
  call void @llvm.lifetime.start.p0(i64 4, ptr %12) #8
  call void @llvm.lifetime.start.p0(i64 8, ptr %13) #8
  %16 = load ptr, ptr %8, align 8
  store ptr %16, ptr %13, align 8
  %17 = load i32, ptr %10, align 4
  %18 = icmp eq i32 %17, 1
  br i1 %18, label %19, label %28

19:                                               ; preds = %5
  %20 = load ptr, ptr %13, align 8
  %21 = getelementptr inbounds i8, ptr %20, i64 0
  %22 = load i8, ptr %21, align 1
  %23 = load ptr, ptr %7, align 8
  %24 = getelementptr inbounds i8, ptr %23, i64 1
  store i8 %22, ptr %24, align 1
  %25 = load ptr, ptr %7, align 8
  %26 = getelementptr inbounds i8, ptr %25, i64 0
  store i8 %22, ptr %26, align 1
  %27 = load ptr, ptr %7, align 8
  store ptr %27, ptr %6, align 8
  store i32 1, ptr %14, align 4
  br label %139

28:                                               ; preds = %5
  %29 = load ptr, ptr %13, align 8
  %30 = getelementptr inbounds i8, ptr %29, i64 0
  %31 = load i8, ptr %30, align 1
  %32 = load ptr, ptr %7, align 8
  %33 = getelementptr inbounds i8, ptr %32, i64 0
  store i8 %31, ptr %33, align 1
  %34 = load ptr, ptr %13, align 8
  %35 = getelementptr inbounds i8, ptr %34, i64 0
  %36 = load i8, ptr %35, align 1
  %37 = zext i8 %36 to i32
  %38 = mul nsw i32 %37, 3
  %39 = load ptr, ptr %13, align 8
  %40 = getelementptr inbounds i8, ptr %39, i64 1
  %41 = load i8, ptr %40, align 1
  %42 = zext i8 %41 to i32
  %43 = add nsw i32 %38, %42
  %44 = add nsw i32 %43, 2
  %45 = ashr i32 %44, 2
  %46 = trunc i32 %45 to i8
  %47 = load ptr, ptr %7, align 8
  %48 = getelementptr inbounds i8, ptr %47, i64 1
  store i8 %46, ptr %48, align 1
  store i32 1, ptr %12, align 4
  br label %49

49:                                               ; preds = %97, %28
  %50 = load i32, ptr %12, align 4
  %51 = load i32, ptr %10, align 4
  %52 = sub nsw i32 %51, 1
  %53 = icmp slt i32 %50, %52
  br i1 %53, label %54, label %100

54:                                               ; preds = %49
  call void @llvm.lifetime.start.p0(i64 4, ptr %15) #8
  %55 = load ptr, ptr %13, align 8
  %56 = load i32, ptr %12, align 4
  %57 = sext i32 %56 to i64
  %58 = getelementptr inbounds i8, ptr %55, i64 %57
  %59 = load i8, ptr %58, align 1
  %60 = zext i8 %59 to i32
  %61 = mul nsw i32 3, %60
  %62 = add nsw i32 %61, 2
  store i32 %62, ptr %15, align 4
  %63 = load i32, ptr %15, align 4
  %64 = load ptr, ptr %13, align 8
  %65 = load i32, ptr %12, align 4
  %66 = sub nsw i32 %65, 1
  %67 = sext i32 %66 to i64
  %68 = getelementptr inbounds i8, ptr %64, i64 %67
  %69 = load i8, ptr %68, align 1
  %70 = zext i8 %69 to i32
  %71 = add nsw i32 %63, %70
  %72 = ashr i32 %71, 2
  %73 = trunc i32 %72 to i8
  %74 = load ptr, ptr %7, align 8
  %75 = load i32, ptr %12, align 4
  %76 = mul nsw i32 %75, 2
  %77 = add nsw i32 %76, 0
  %78 = sext i32 %77 to i64
  %79 = getelementptr inbounds i8, ptr %74, i64 %78
  store i8 %73, ptr %79, align 1
  %80 = load i32, ptr %15, align 4
  %81 = load ptr, ptr %13, align 8
  %82 = load i32, ptr %12, align 4
  %83 = add nsw i32 %82, 1
  %84 = sext i32 %83 to i64
  %85 = getelementptr inbounds i8, ptr %81, i64 %84
  %86 = load i8, ptr %85, align 1
  %87 = zext i8 %86 to i32
  %88 = add nsw i32 %80, %87
  %89 = ashr i32 %88, 2
  %90 = trunc i32 %89 to i8
  %91 = load ptr, ptr %7, align 8
  %92 = load i32, ptr %12, align 4
  %93 = mul nsw i32 %92, 2
  %94 = add nsw i32 %93, 1
  %95 = sext i32 %94 to i64
  %96 = getelementptr inbounds i8, ptr %91, i64 %95
  store i8 %90, ptr %96, align 1
  call void @llvm.lifetime.end.p0(i64 4, ptr %15) #8
  br label %97

97:                                               ; preds = %54
  %98 = load i32, ptr %12, align 4
  %99 = add nsw i32 %98, 1
  store i32 %99, ptr %12, align 4
  br label %49, !llvm.loop !34

100:                                              ; preds = %49
  %101 = load ptr, ptr %13, align 8
  %102 = load i32, ptr %10, align 4
  %103 = sub nsw i32 %102, 2
  %104 = sext i32 %103 to i64
  %105 = getelementptr inbounds i8, ptr %101, i64 %104
  %106 = load i8, ptr %105, align 1
  %107 = zext i8 %106 to i32
  %108 = mul nsw i32 %107, 3
  %109 = load ptr, ptr %13, align 8
  %110 = load i32, ptr %10, align 4
  %111 = sub nsw i32 %110, 1
  %112 = sext i32 %111 to i64
  %113 = getelementptr inbounds i8, ptr %109, i64 %112
  %114 = load i8, ptr %113, align 1
  %115 = zext i8 %114 to i32
  %116 = add nsw i32 %108, %115
  %117 = add nsw i32 %116, 2
  %118 = ashr i32 %117, 2
  %119 = trunc i32 %118 to i8
  %120 = load ptr, ptr %7, align 8
  %121 = load i32, ptr %12, align 4
  %122 = mul nsw i32 %121, 2
  %123 = add nsw i32 %122, 0
  %124 = sext i32 %123 to i64
  %125 = getelementptr inbounds i8, ptr %120, i64 %124
  store i8 %119, ptr %125, align 1
  %126 = load ptr, ptr %13, align 8
  %127 = load i32, ptr %10, align 4
  %128 = sub nsw i32 %127, 1
  %129 = sext i32 %128 to i64
  %130 = getelementptr inbounds i8, ptr %126, i64 %129
  %131 = load i8, ptr %130, align 1
  %132 = load ptr, ptr %7, align 8
  %133 = load i32, ptr %12, align 4
  %134 = mul nsw i32 %133, 2
  %135 = add nsw i32 %134, 1
  %136 = sext i32 %135 to i64
  %137 = getelementptr inbounds i8, ptr %132, i64 %136
  store i8 %131, ptr %137, align 1
  %138 = load ptr, ptr %7, align 8
  store ptr %138, ptr %6, align 8
  store i32 1, ptr %14, align 4
  br label %139

139:                                              ; preds = %100, %19
  call void @llvm.lifetime.end.p0(i64 8, ptr %13) #8
  call void @llvm.lifetime.end.p0(i64 4, ptr %12) #8
  %140 = load ptr, ptr %6, align 8
  ret ptr %140
}